target datalayout = "e-m:e-p270:32:32-p271:32:32-p272:64:64-i64:64-i128:128-f80:128-n8:16:32:64-S128"
target triple = "x86_64-pc-linux-gnu"

%"class.Luau::CstNode" = type { i32 }
%"class.std::optional" = type { %"struct.std::_Optional_base" }
%"struct.std::_Optional_base" = type { %"struct.std::_Optional_payload" }
%"struct.std::_Optional_payload" = type { %"struct.std::_Optional_payload_base.base", [3 x i8] }
%"struct.std::_Optional_payload_base.base" = type <{ %"union.std::_Optional_payload_base<Luau::Position>::_Storage", i8 }>
%"union.std::_Optional_payload_base<Luau::Position>::_Storage" = type { %"struct.Luau::Position" }
%"struct.Luau::Position" = type { i32, i32 }
%"class.Luau::CstGenericType" = type { %"class.Luau::CstNode", %"class.std::optional" }

@_ZN4Luau7CstRttiINS_14CstGenericTypeEE5valueE = linkonce_odr dso_local global i32 0, comdat, align 4

; Function Attrs: mustprogress nounwind uwtable
define linkonce_odr dso_local void @_ZN4Luau7CstNodeC2Ei(ptr noundef nonnull align 4 dereferenceable(4) %0, i32 noundef %1) unnamed_addr #3 comdat align 2 {
  %3 = alloca ptr, align 8
  %4 = alloca i32, align 4
  store ptr %0, ptr %3, align 8, !tbaa !18
  store i32 %1, ptr %4, align 4, !tbaa !4
  %5 = load ptr, ptr %3, align 8
  %6 = getelementptr inbounds nuw %"class.Luau::CstNode", ptr %5, i32 0, i32 0
  %7 = load i32, ptr %4, align 4, !tbaa !4
  store i32 %7, ptr %6, align 4, !tbaa !20
  ret void
}

; Function Attrs: mustprogress nounwind uwtable
define linkonce_odr dso_local noundef i32 @_ZN4Luau14CstGenericType13CstClassIndexEv() #3 comdat align 2 {
  %1 = load i32, ptr @_ZN4Luau7CstRttiINS_14CstGenericTypeEE5valueE, align 4, !tbaa !4
  ret i32 %1
}

; Function Attrs: mustprogress uwtable
define dso_local void @_ZN4Luau14CstGenericTypeC2ESt8optionalINS_8PositionEE(ptr noundef nonnull align 4 dereferenceable(16) %0, i64 %1, i8 %2) unnamed_addr #2 align 2 {
  %4 = alloca %"class.std::optional", align 4
  %5 = alloca { i64, i8 }, align 4
  %6 = alloca ptr, align 8
  %7 = getelementptr inbounds nuw { i64, i8 }, ptr %5, i32 0, i32 0
  store i64 %1, ptr %7, align 4
  %8 = getelementptr inbounds nuw { i64, i8 }, ptr %5, i32 0, i32 1
  store i8 %2, ptr %8, align 4
  call void @llvm.memcpy.p0.p0.i64(ptr align 4 %4, ptr align 4 %5, i64 12, i1 false)
  store ptr %0, ptr %6, align 8, !tbaa !79
  %9 = load ptr, ptr %6, align 8
  %10 = call noundef i32 @_ZN4Luau14CstGenericType13CstClassIndexEv()
  call void @_ZN4Luau7CstNodeC2Ei(ptr noundef nonnull align 4 dereferenceable(4) %9, i32 noundef %10)
  %11 = getelementptr inbounds nuw %"class.Luau::CstGenericType", ptr %9, i32 0, i32 1
  call void @llvm.memcpy.p0.p0.i64(ptr align 4 %11, ptr align 4 %4, i64 12, i1 false)
  ret void
}